target datalayout = "e-m:e-p270:32:32-p271:32:32-p272:64:64-i64:64-i128:128-f80:128-n8:16:32:64-S128"
target triple = "x86_64-unknown-linux-gnu"

%struct.PlatformBusDevice = type { %struct.SysBusDevice, i32, %struct.MemoryRegion, i32, ptr, ptr }
%struct.SysBusDevice = type { %struct.DeviceState, i32, [32 x %struct.anon], i32, [32 x i32] }
%struct.DeviceState = type { %struct.Object, ptr, ptr, i8, i8, i64, ptr, i32, i8, ptr, %struct.NamedGPIOListHead, %struct.NamedClockListHead, %struct.BusStateHead, i32, i32, i32, %struct.ResettableState, ptr, %struct.MemReentrancyGuard }
%struct.Object = type { ptr, ptr, ptr, i32, ptr }
%struct.NamedGPIOListHead = type { ptr }
%struct.NamedClockListHead = type { ptr }
%struct.BusStateHead = type { ptr }
%struct.ResettableState = type { i32, i8, i8 }
%struct.MemReentrancyGuard = type { i8 }
%struct.anon = type { i64, ptr }
%struct.MemoryRegion = type { %struct.Object, i8, i8, i8, i8, i8, i8, i8, i8, i8, i8, ptr, ptr, ptr, ptr, ptr, ptr, i32, i128, i64, ptr, i64, i8, i8, i8, i8, i8, ptr, i64, i32, %union.anon, %union.anon.0, %union.anon.1, ptr, i32, ptr, ptr, i8 }
%union.anon = type { %struct.QTailQLink }
%struct.QTailQLink = type { ptr, ptr }
%union.anon.0 = type { %struct.QTailQLink }
%union.anon.1 = type { %struct.QTailQLink }

; Function Attrs: nounwind sspstrong uwtable
define dso_local i32 @platform_bus_get_irqn(ptr noundef %pbus, ptr noundef %sbdev, i32 noundef %n) #0 {
entry:
  %retval = alloca i32, align 4
  %pbus.addr = alloca ptr, align 8
  %sbdev.addr = alloca ptr, align 8
  %n.addr = alloca i32, align 4
  %sbirq = alloca ptr, align 8
  %i = alloca i32, align 4
  store ptr %pbus, ptr %pbus.addr, align 8
  store ptr %sbdev, ptr %sbdev.addr, align 8
  store i32 %n, ptr %n.addr, align 4
  %0 = load ptr, ptr %sbdev.addr, align 8
  %1 = load i32, ptr %n.addr, align 4
  %call = call ptr @sysbus_get_connected_irq(ptr noundef %0, i32 noundef %1)
  store ptr %call, ptr %sbirq, align 8
  store i32 0, ptr %i, align 4
  br label %for.cond

for.cond:                                         ; preds = %for.inc, %entry
  %2 = load i32, ptr %i, align 4
  %3 = load ptr, ptr %pbus.addr, align 8
  %num_irqs = getelementptr inbounds %struct.PlatformBusDevice, ptr %3, i32 0, i32 3
  %4 = load i32, ptr %num_irqs, align 16
  %cmp = icmp ult i32 %2, %4
  br i1 %cmp, label %for.body, label %for.end

for.body:                                         ; preds = %for.cond
  %5 = load ptr, ptr %pbus.addr, align 8
  %irqs = getelementptr inbounds %struct.PlatformBusDevice, ptr %5, i32 0, i32 4
  %6 = load ptr, ptr %irqs, align 8
  %7 = load i32, ptr %i, align 4
  %idxprom = sext i32 %7 to i64
  %arrayidx = getelementptr ptr, ptr %6, i64 %idxprom
  %8 = load ptr, ptr %arrayidx, align 8
  %9 = load ptr, ptr %sbirq, align 8
  %cmp1 = icmp eq ptr %8, %9
  br i1 %cmp1, label %if.then, label %if.end

if.then:                                          ; preds = %for.body
  %10 = load i32, ptr %i, align 4
  store i32 %10, ptr %retval, align 4
  br label %return

if.end:                                           ; preds = %for.body
  br label %for.inc

for.inc:                                          ; preds = %if.end
  %11 = load i32, ptr %i, align 4
  %inc = add i32 %11, 1
  store i32 %inc, ptr %i, align 4
  br label %for.cond, !llvm.loop !5

for.end:                                          ; preds = %for.cond
  store i32 -1, ptr %retval, align 4
  br label %return

return:                                           ; preds = %for.end, %if.then
  %12 = load i32, ptr %retval, align 4
  ret i32 %12
}