; Function Attrs: nounwind sspstrong uwtable
define dso_local i32 @platform_bus_get_irqn(ptr noundef readonly captures(none) %pbus, ptr noundef %sbdev, i32 noundef %n) local_unnamed_addr #0 {
entry:
  %call = tail call ptr @sysbus_get_connected_irq(ptr noundef %sbdev, i32 noundef %n) #9
  %num_irqs = getelementptr inbounds nuw i8, ptr %pbus, i64 1104
  %0 = load i32, ptr %num_irqs, align 16
  %cmp5.not = icmp eq i32 %0, 0
  br i1 %cmp5.not, label %return, label %for.body.lr.ph

for.body.lr.ph:                                   ; preds = %entry
  %irqs = getelementptr inbounds nuw i8, ptr %pbus, i64 1112
  %1 = load ptr, ptr %irqs, align 8
  br label %for.body

for.body:                                         ; preds = %for.body.lr.ph, %for.inc
  %i.06 = phi i32 [ 0, %for.body.lr.ph ], [ %inc, %for.inc ]
  %idxprom = sext i32 %i.06 to i64
  %arrayidx = getelementptr ptr, ptr %1, i64 %idxprom
  %2 = load ptr, ptr %arrayidx, align 8
  %cmp1 = icmp eq ptr %2, %call
  br i1 %cmp1, label %return, label %for.inc

for.inc:                                          ; preds = %for.body
  %inc = add nuw i32 %i.06, 1
  %exitcond.not = icmp eq i32 %inc, %0
  br i1 %exitcond.not, label %return, label %for.body, !llvm.loop !5

return:                                           ; preds = %for.body, %for.inc, %entry
  %retval.0 = phi i32 [ -1, %entry ], [ -1, %for.inc ], [ %i.06, %for.body ]
  ret i32 %retval.0
}